; Function Attrs: nounwind uwtable
define ptr @l_Array_foldlMUnsafe_fold___at_Lake_Package_mkTargetCommands___spec__2(ptr readnone captures(none) %0, ptr noundef %1, ptr noundef %2, ptr noundef %3, ptr noundef readonly captures(none) %4, i64 noundef %5, i64 noundef %6, ptr noundef %7) local_unnamed_addr #0 {
  %.not79 = icmp eq i64 %5, %6
  br i1 %.not79, label %.._crit_edge_crit_edge, label %.lr.ph

.._crit_edge_crit_edge:                           ; preds = %8
  %.pre = ptrtoint ptr %3 to i64
  %.pre82 = and i64 %.pre, 1
  br label %._crit_edge

.lr.ph:                                           ; preds = %8
  %9 = getelementptr inbounds nuw i8, ptr %4, i64 24
  %10 = ptrtoint ptr %3 to i64
  %11 = and i64 %10, 1
  %.not77 = icmp eq i64 %11, 0
  br label %12

12:                                               ; preds = %.lr.ph, %lean_dec.exit43
  %.03581 = phi i64 [ %5, %.lr.ph ], [ %43, %lean_dec.exit43 ]
  %.03780 = phi ptr [ %7, %.lr.ph ], [ %.239, %lean_dec.exit43 ]
  %13 = getelementptr inbounds nuw [0 x ptr], ptr %9, i64 0, i64 %.03581
  %14 = load ptr, ptr %13, align 8, !tbaa !12
  %15 = ptrtoint ptr %14 to i64
  %16 = and i64 %15, 1
  %.not.i54 = icmp eq i64 %16, 0
  br i1 %.not.i54, label %17, label %lean_array_uget.exit

17:                                               ; preds = %12
  %.val.i.i = load i32, ptr %14, align 4, !tbaa !8
  %18 = icmp sgt i32 %.val.i.i, 0
  br i1 %18, label %19, label %21, !prof !11

19:                                               ; preds = %17
  %20 = add nuw i32 %.val.i.i, 1
  store i32 %20, ptr %14, align 4, !tbaa !8
  br label %lean_array_uget.exit

21:                                               ; preds = %17
  %.not.i.i = icmp eq i32 %.val.i.i, 0
  br i1 %.not.i.i, label %lean_array_uget.exit, label %22

22:                                               ; preds = %21
  tail call void @lean_inc_ref_cold(ptr noundef nonnull %14) #6
  br label %lean_array_uget.exit

lean_array_uget.exit:                             ; preds = %12, %19, %21, %22
  %23 = getelementptr inbounds nuw i8, ptr %14, i64 24
  %24 = load ptr, ptr %23, align 8, !tbaa !12
  %25 = ptrtoint ptr %24 to i64
  %26 = and i64 %25, 1
  %.not73 = icmp eq i64 %26, 0
  br i1 %.not73, label %27, label %lean_inc.exit47

27:                                               ; preds = %lean_array_uget.exit
  %.val.i = load i32, ptr %24, align 4, !tbaa !8
  %28 = icmp sgt i32 %.val.i, 0
  br i1 %28, label %29, label %31, !prof !11

29:                                               ; preds = %27
  %30 = add nuw i32 %.val.i, 1
  store i32 %30, ptr %24, align 4, !tbaa !8
  br label %34

31:                                               ; preds = %27
  %.not.i55 = icmp eq i32 %.val.i, 0
  br i1 %.not.i55, label %34, label %32

32:                                               ; preds = %31
  tail call void @lean_inc_ref_cold(ptr noundef nonnull %24) #6
  br label %34

lean_inc.exit47:                                  ; preds = %lean_array_uget.exit
  %33 = tail call zeroext i8 @lean_name_eq(ptr noundef %24, ptr noundef %2) #6
  br label %lean_dec.exit44

34:                                               ; preds = %32, %31, %29
  %35 = tail call zeroext i8 @lean_name_eq(ptr noundef nonnull %24, ptr noundef %2) #6
  %36 = load i32, ptr %24, align 4, !tbaa !8
  %37 = icmp sgt i32 %36, 1
  br i1 %37, label %38, label %40, !prof !11

38:                                               ; preds = %34
  %39 = add nsw i32 %36, -1
  store i32 %39, ptr %24, align 4, !tbaa !8
  br label %lean_dec.exit44

40:                                               ; preds = %34
  %.not.i = icmp eq i32 %36, 0
  br i1 %.not.i, label %lean_dec.exit44, label %41

41:                                               ; preds = %40
  tail call void @lean_dec_ref_cold(ptr noundef nonnull %24) #6
  br label %lean_dec.exit44

lean_dec.exit44:                                  ; preds = %41, %40, %38, %lean_inc.exit47
  %42 = phi i8 [ %33, %lean_inc.exit47 ], [ %35, %38 ], [ %35, %40 ], [ %35, %41 ]
  %43 = add i64 %.03581, 1
  %44 = icmp eq i8 %42, 0
  br i1 %44, label %45, label %53

45:                                               ; preds = %lean_dec.exit44
  br i1 %.not.i54, label %46, label %lean_dec.exit43

46:                                               ; preds = %45
  %47 = load i32, ptr %14, align 4, !tbaa !8
  %48 = icmp sgt i32 %47, 1
  br i1 %48, label %49, label %51, !prof !11

49:                                               ; preds = %46
  %50 = add nsw i32 %47, -1
  store i32 %50, ptr %14, align 4, !tbaa !8
  br label %lean_dec.exit43

51:                                               ; preds = %46
  %.not.i48 = icmp eq i32 %47, 0
  br i1 %.not.i48, label %lean_dec.exit43, label %52

52:                                               ; preds = %51
  tail call void @lean_dec_ref_cold(ptr noundef nonnull %14) #6
  br label %lean_dec.exit43

53:                                               ; preds = %lean_dec.exit44
  %54 = getelementptr inbounds nuw i8, ptr %14, i64 32
  %55 = load ptr, ptr %54, align 8, !tbaa !12
  %56 = ptrtoint ptr %55 to i64
  %57 = and i64 %56, 1
  %.not74 = icmp eq i64 %57, 0
  br i1 %.not74, label %58, label %lean_inc.exit46

58:                                               ; preds = %53
  %.val.i56 = load i32, ptr %55, align 4, !tbaa !8
  %59 = icmp sgt i32 %.val.i56, 0
  br i1 %59, label %60, label %62, !prof !11

60:                                               ; preds = %58
  %61 = add nuw i32 %.val.i56, 1
  store i32 %61, ptr %55, align 4, !tbaa !8
  br label %lean_inc.exit46

62:                                               ; preds = %58
  %.not.i57 = icmp eq i32 %.val.i56, 0
  br i1 %.not.i57, label %lean_inc.exit46, label %63

63:                                               ; preds = %62
  tail call void @lean_inc_ref_cold(ptr noundef nonnull %55) #6
  br label %lean_inc.exit46

lean_inc.exit46:                                  ; preds = %63, %62, %60, %53
  %64 = getelementptr inbounds nuw i8, ptr %14, i64 16
  %65 = load ptr, ptr %64, align 8, !tbaa !12
  %66 = ptrtoint ptr %65 to i64
  %67 = and i64 %66, 1
  %.not75 = icmp eq i64 %67, 0
  br i1 %.not75, label %68, label %lean_inc.exit45

68:                                               ; preds = %lean_inc.exit46
  %.val.i59 = load i32, ptr %65, align 4, !tbaa !8
  %69 = icmp sgt i32 %.val.i59, 0
  br i1 %69, label %70, label %72, !prof !11

70:                                               ; preds = %68
  %71 = add nuw i32 %.val.i59, 1
  store i32 %71, ptr %65, align 4, !tbaa !8
  br label %lean_inc.exit45

72:                                               ; preds = %68
  %.not.i60 = icmp eq i32 %.val.i59, 0
  br i1 %.not.i60, label %lean_inc.exit45, label %73

73:                                               ; preds = %72
  tail call void @lean_inc_ref_cold(ptr noundef nonnull %65) #6
  br label %lean_inc.exit45

lean_inc.exit45:                                  ; preds = %73, %72, %70, %lean_inc.exit46
  br i1 %.not.i54, label %74, label %lean_dec.exit42

74:                                               ; preds = %lean_inc.exit45
  %75 = load i32, ptr %14, align 4, !tbaa !8
  %76 = icmp sgt i32 %75, 1
  br i1 %76, label %77, label %79, !prof !11

77:                                               ; preds = %74
  %78 = add nsw i32 %75, -1
  store i32 %78, ptr %14, align 4, !tbaa !8
  br label %lean_dec.exit42

79:                                               ; preds = %74
  %.not.i50 = icmp eq i32 %75, 0
  br i1 %.not.i50, label %lean_dec.exit42, label %80

80:                                               ; preds = %79
  tail call void @lean_dec_ref_cold(ptr noundef nonnull %14) #6
  br label %lean_dec.exit42

lean_dec.exit42:                                  ; preds = %80, %79, %77, %lean_inc.exit45
  %81 = tail call zeroext i8 @l_Lean_NameSet_contains(ptr noundef %1, ptr noundef %65) #6
  %82 = zext i8 %81 to i64
  %83 = shl nuw nsw i64 %82, 1
  %84 = or disjoint i64 %83, 1
  %85 = inttoptr i64 %84 to ptr
  br i1 %.not77, label %86, label %lean_inc.exit

86:                                               ; preds = %lean_dec.exit42
  %.val.i62 = load i32, ptr %3, align 4, !tbaa !8
  %87 = icmp sgt i32 %.val.i62, 0
  br i1 %87, label %88, label %90, !prof !11

88:                                               ; preds = %86
  %89 = add nuw i32 %.val.i62, 1
  store i32 %89, ptr %3, align 4, !tbaa !8
  br label %lean_inc.exit

90:                                               ; preds = %86
  %.not.i63 = icmp eq i32 %.val.i62, 0
  br i1 %.not.i63, label %lean_inc.exit, label %91

91:                                               ; preds = %90
  tail call void @lean_inc_ref_cold(ptr noundef nonnull %3) #6
  br label %lean_inc.exit

lean_inc.exit:                                    ; preds = %91, %90, %88, %lean_dec.exit42
  %92 = tail call ptr @lean_apply_3(ptr noundef %3, ptr noundef %65, ptr noundef %55, ptr noundef nonnull %85) #6
  %93 = tail call ptr @lean_array_push(ptr noundef %.03780, ptr noundef %92) #6
  br label %lean_dec.exit43

._crit_edge:                                      ; preds = %lean_dec.exit43, %.._crit_edge_crit_edge
  %.pre-phi83 = phi i64 [ %.pre82, %.._crit_edge_crit_edge ], [ %11, %lean_dec.exit43 ]
  %.037.lcssa = phi ptr [ %7, %.._crit_edge_crit_edge ], [ %.239, %lean_dec.exit43 ]
  %.not72 = icmp eq i64 %.pre-phi83, 0
  br i1 %.not72, label %94, label %101

94:                                               ; preds = %._crit_edge
  %95 = load i32, ptr %3, align 4, !tbaa !8
  %96 = icmp sgt i32 %95, 1
  br i1 %96, label %97, label %99, !prof !11

97:                                               ; preds = %94
  %98 = add nsw i32 %95, -1
  store i32 %98, ptr %3, align 4, !tbaa !8
  br label %101

99:                                               ; preds = %94
  %.not.i52 = icmp eq i32 %95, 0
  br i1 %.not.i52, label %101, label %100

100:                                              ; preds = %99
  tail call void @lean_dec_ref_cold(ptr noundef nonnull %3) #6
  br label %101

lean_dec.exit43:                                  ; preds = %45, %49, %51, %52, %lean_inc.exit
  %.239 = phi ptr [ %93, %lean_inc.exit ], [ %.03780, %52 ], [ %.03780, %51 ], [ %.03780, %49 ], [ %.03780, %45 ]
  %.not = icmp eq i64 %43, %6
  br i1 %.not, label %._crit_edge, label %12

101:                                              ; preds = %100, %99, %97, %._crit_edge
  ret ptr %.037.lcssa
}